target datalayout = "e-m:e-p270:32:32-p271:32:32-p272:64:64-i64:64-i128:128-f80:128-n8:16:32:64-S128"
target triple = "x86_64-pc-linux-gnu"

%struct.AVFilterLink = type { ptr, ptr, ptr, ptr, i32, i32, i32, i32, %struct.AVRational, i32, i32, i32, %struct.AVChannelLayout, %struct.AVRational, ptr, i32, %struct.AVFilterFormatsConfig, %struct.AVFilterFormatsConfig }
%struct.AVChannelLayout = type { i32, i32, %union.anon.1, ptr }
%union.anon.1 = type { i64 }
%struct.AVRational = type { i32, i32 }
%struct.AVFilterFormatsConfig = type { ptr, ptr, ptr, ptr, ptr }
%struct.AVFilterContext = type { ptr, ptr, ptr, ptr, ptr, i32, ptr, ptr, i32, ptr, ptr, i32, i32, ptr, ptr, ptr, ptr, i32, ptr, i32, i32 }
%struct.ColorBalanceContext = type { ptr, %struct.Range, %struct.Range, %struct.Range, i32, [4 x i8], i32, i32, i32, ptr }
%struct.Range = type { float, float, float }
%struct.AVPixFmtDescriptor = type { ptr, i8, i8, i8, i64, [4 x %struct.AVComponentDescriptor], ptr }
%struct.AVComponentDescriptor = type { i32, i32, i32, i32, i32 }

; Function Attrs: nounwind uwtable
define internal i32 @config_output(ptr noundef %0) #1 {
  %2 = alloca ptr, align 8
  %3 = alloca ptr, align 8
  %4 = alloca ptr, align 8
  %5 = alloca ptr, align 8
  %6 = alloca i32, align 4
  %7 = alloca i32, align 4
  %8 = alloca i32, align 4
  store ptr %0, ptr %2, align 8, !tbaa !4
  call void @llvm.lifetime.start.p0(i64 8, ptr %3) #6
  %9 = load ptr, ptr %2, align 8, !tbaa !4
  %10 = getelementptr inbounds nuw %struct.AVFilterLink, ptr %9, i32 0, i32 0
  %11 = load ptr, ptr %10, align 8, !tbaa !46
  store ptr %11, ptr %3, align 8, !tbaa !23
  call void @llvm.lifetime.start.p0(i64 8, ptr %4) #6
  %12 = load ptr, ptr %3, align 8, !tbaa !23
  %13 = getelementptr inbounds nuw %struct.AVFilterContext, ptr %12, i32 0, i32 9
  %14 = load ptr, ptr %13, align 8, !tbaa !24
  store ptr %14, ptr %4, align 8, !tbaa !34
  call void @llvm.lifetime.start.p0(i64 8, ptr %5) #6
  %15 = load ptr, ptr %2, align 8, !tbaa !4
  %16 = getelementptr inbounds nuw %struct.AVFilterLink, ptr %15, i32 0, i32 5
  %17 = load i32, ptr %16, align 4, !tbaa !47
  %18 = call ptr @av_pix_fmt_desc_get(i32 noundef %17)
  store ptr %18, ptr %5, align 8, !tbaa !48
  call void @llvm.lifetime.start.p0(i64 4, ptr %6) #6
  %19 = load ptr, ptr %5, align 8, !tbaa !48
  %20 = getelementptr inbounds nuw %struct.AVPixFmtDescriptor, ptr %19, i32 0, i32 5
  %21 = getelementptr inbounds [4 x %struct.AVComponentDescriptor], ptr %20, i64 0, i64 0
  %22 = getelementptr inbounds nuw %struct.AVComponentDescriptor, ptr %21, i32 0, i32 4
  %23 = load i32, ptr %22, align 8, !tbaa !50
  store i32 %23, ptr %6, align 4, !tbaa !52
  call void @llvm.lifetime.start.p0(i64 4, ptr %7) #6
  %24 = load i32, ptr %6, align 4, !tbaa !52
  %25 = shl i32 1, %24
  %26 = sub nsw i32 %25, 1
  store i32 %26, ptr %7, align 4, !tbaa !52
  call void @llvm.lifetime.start.p0(i64 4, ptr %8) #6
  %27 = load ptr, ptr %2, align 8, !tbaa !4
  %28 = getelementptr inbounds nuw %struct.AVFilterLink, ptr %27, i32 0, i32 5
  %29 = load i32, ptr %28, align 4, !tbaa !47
  %30 = call i32 @av_pix_fmt_count_planes(i32 noundef %29)
  %31 = icmp sgt i32 %30, 1
  %32 = zext i1 %31 to i32
  store i32 %32, ptr %8, align 4, !tbaa !52
  %33 = load i32, ptr %6, align 4, !tbaa !52
  %34 = load ptr, ptr %4, align 8, !tbaa !34
  %35 = getelementptr inbounds nuw %struct.ColorBalanceContext, ptr %34, i32 0, i32 6
  store i32 %33, ptr %35, align 4, !tbaa !53
  %36 = load i32, ptr %7, align 4, !tbaa !52
  %37 = load ptr, ptr %4, align 8, !tbaa !34
  %38 = getelementptr inbounds nuw %struct.ColorBalanceContext, ptr %37, i32 0, i32 7
  store i32 %36, ptr %38, align 8, !tbaa !54
  %39 = load i32, ptr %7, align 4, !tbaa !52
  %40 = icmp eq i32 %39, 255
  br i1 %40, label %41, label %47

41:                                               ; preds = %1
  %42 = load i32, ptr %8, align 4, !tbaa !52
  %43 = icmp ne i32 %42, 0
  br i1 %43, label %44, label %47

44:                                               ; preds = %41
  %45 = load ptr, ptr %4, align 8, !tbaa !34
  %46 = getelementptr inbounds nuw %struct.ColorBalanceContext, ptr %45, i32 0, i32 9
  store ptr @color_balance8_p, ptr %46, align 8, !tbaa !42
  br label %64

47:                                               ; preds = %41, %1
  %48 = load i32, ptr %8, align 4, !tbaa !52
  %49 = icmp ne i32 %48, 0
  br i1 %49, label %50, label %53

50:                                               ; preds = %47
  %51 = load ptr, ptr %4, align 8, !tbaa !34
  %52 = getelementptr inbounds nuw %struct.ColorBalanceContext, ptr %51, i32 0, i32 9
  store ptr @color_balance16_p, ptr %52, align 8, !tbaa !42
  br label %63

53:                                               ; preds = %47
  %54 = load i32, ptr %7, align 4, !tbaa !52
  %55 = icmp eq i32 %54, 255
  br i1 %55, label %56, label %59

56:                                               ; preds = %53
  %57 = load ptr, ptr %4, align 8, !tbaa !34
  %58 = getelementptr inbounds nuw %struct.ColorBalanceContext, ptr %57, i32 0, i32 9
  store ptr @color_balance8, ptr %58, align 8, !tbaa !42
  br label %62

59:                                               ; preds = %53
  %60 = load ptr, ptr %4, align 8, !tbaa !34
  %61 = getelementptr inbounds nuw %struct.ColorBalanceContext, ptr %60, i32 0, i32 9
  store ptr @color_balance16, ptr %61, align 8, !tbaa !42
  br label %62

62:                                               ; preds = %59, %56
  br label %63

63:                                               ; preds = %62, %50
  br label %64

64:                                               ; preds = %63, %44
  %65 = load ptr, ptr %4, align 8, !tbaa !34
  %66 = getelementptr inbounds nuw %struct.ColorBalanceContext, ptr %65, i32 0, i32 5
  %67 = getelementptr inbounds [4 x i8], ptr %66, i64 0, i64 0
  %68 = load ptr, ptr %2, align 8, !tbaa !4
  %69 = getelementptr inbounds nuw %struct.AVFilterLink, ptr %68, i32 0, i32 5
  %70 = load i32, ptr %69, align 4, !tbaa !47
  %71 = call i32 @ff_fill_rgba_map(ptr noundef %67, i32 noundef %70)
  %72 = load ptr, ptr %5, align 8, !tbaa !48
  %73 = call i32 @av_get_padded_bits_per_pixel(ptr noundef %72)
  %74 = ashr i32 %73, 3
  %75 = load ptr, ptr %4, align 8, !tbaa !34
  %76 = getelementptr inbounds nuw %struct.ColorBalanceContext, ptr %75, i32 0, i32 8
  store i32 %74, ptr %76, align 4, !tbaa !55
  call void @llvm.lifetime.end.p0(i64 4, ptr %8) #6
  call void @llvm.lifetime.end.p0(i64 4, ptr %7) #6
  call void @llvm.lifetime.end.p0(i64 4, ptr %6) #6
  call void @llvm.lifetime.end.p0(i64 8, ptr %5) #6
  call void @llvm.lifetime.end.p0(i64 8, ptr %4) #6
  call void @llvm.lifetime.end.p0(i64 8, ptr %3) #6
  ret i32 0
}