; Function Attrs: nounwind uwtable
define internal noundef i32 @config_output(ptr noundef readonly captures(none) %0) #1 {
  %2 = load ptr, ptr %0, align 8, !tbaa !43
  %3 = getelementptr inbounds nuw i8, ptr %2, i64 72
  %4 = load ptr, ptr %3, align 8, !tbaa !21
  %5 = getelementptr inbounds nuw i8, ptr %0, i64 36
  %6 = load i32, ptr %5, align 4, !tbaa !44
  %7 = tail call ptr @av_pix_fmt_desc_get(i32 noundef %6) #7
  %8 = getelementptr inbounds nuw i8, ptr %7, i64 40
  %9 = load i32, ptr %8, align 8, !tbaa !45
  %notmask = shl nsw i32 -1, %9
  %10 = xor i32 %notmask, -1
  %11 = load i32, ptr %5, align 4, !tbaa !44
  %12 = tail call i32 @av_pix_fmt_count_planes(i32 noundef %11) #7
  %13 = icmp sgt i32 %12, 1
  %14 = getelementptr inbounds nuw i8, ptr %4, i64 52
  store i32 %9, ptr %14, align 4, !tbaa !47
  %15 = getelementptr inbounds nuw i8, ptr %4, i64 56
  store i32 %10, ptr %15, align 8, !tbaa !48
  %16 = icmp eq i32 %9, 8
  %17 = getelementptr inbounds nuw i8, ptr %4, i64 64
  %color_balance8.color_balance16 = select i1 %16, ptr @color_balance8, ptr @color_balance16
  %spec.select = select i1 %16, ptr @color_balance8_p, ptr @color_balance16_p
  %color_balance16_p.sink = select i1 %13, ptr %spec.select, ptr %color_balance8.color_balance16
  store ptr %color_balance16_p.sink, ptr %17, align 8, !tbaa !39
  %18 = getelementptr inbounds nuw i8, ptr %4, i64 48
  %19 = load i32, ptr %5, align 4, !tbaa !44
  %20 = tail call i32 @ff_fill_rgba_map(ptr noundef nonnull %18, i32 noundef %19) #7
  %21 = tail call i32 @av_get_padded_bits_per_pixel(ptr noundef nonnull %7) #7
  %22 = ashr i32 %21, 3
  %23 = getelementptr inbounds nuw i8, ptr %4, i64 60
  store i32 %22, ptr %23, align 4, !tbaa !49
  ret i32 0
}